; Function Attrs: mustprogress nofree norecurse nosync nounwind memory(read, argmem: readwrite, inaccessiblemem: none) uwtable
define noundef signext i8 @_ZNK6icu_7521TimeArrayTimeZoneRule16getPreviousStartEdiiaRd(ptr nocapture noundef nonnull readonly align 8 dereferenceable(352) %this, double noundef %base, i32 noundef %prevRawOffset, i32 noundef %prevDSTSavings, i8 noundef signext %inclusive, ptr nocapture noundef nonnull writeonly align 8 dereferenceable(8) %result) unnamed_addr #12 align 2 {
entry:
  %fNumStartTimes = getelementptr inbounds i8, ptr %this, i64 84
  %0 = load i32, ptr %fNumStartTimes, align 4
  %fStartTimes = getelementptr inbounds i8, ptr %this, i64 88
  %1 = load ptr, ptr %fStartTimes, align 8
  %fTimeRuleType.i = getelementptr inbounds i8, ptr %this, i64 80
  %2 = load i32, ptr %fTimeRuleType.i, align 8
  %.fr = freeze i32 %2
  %conv.i = sitofp i32 %prevRawOffset to double
  %conv5.i = sitofp i32 %prevDSTSavings to double
  %tobool.not.not = icmp eq i8 %inclusive, 0
  switch i32 %.fr, label %entry.split.split [
    i32 2, label %entry.split.us
    i32 0, label %entry.split.split.us
  ]

entry.split.us:                                   ; preds = %entry
  br i1 %tobool.not.not, label %entry.split.us.split.us, label %for.cond.us.preheader

entry.split.us.split.us:                          ; preds = %entry.split.us
  %cmp.us.us58 = icmp sgt i32 %0, 0
  br i1 %cmp.us.us58, label %for.body.us.us.preheader, label %return

for.body.us.us.preheader:                         ; preds = %entry.split.us.split.us
  %i.0.us.us57 = add nsw i32 %0, -1
  %3 = zext nneg i32 %i.0.us.us57 to i64
  br label %for.body.us.us

for.cond.us.us:                                   ; preds = %for.body.us.us
  %indvars.iv.next105 = add nsw i64 %indvars.iv104, -1
  %cmp.us.us = icmp sgt i64 %indvars.iv104, 0
  br i1 %cmp.us.us, label %for.body.us.us, label %return

for.body.us.us:                                   ; preds = %for.body.us.us.preheader, %for.cond.us.us
  %indvars.iv104 = phi i64 [ %3, %for.body.us.us.preheader ], [ %indvars.iv.next105, %for.cond.us.us ]
  %arrayidx.us.us = getelementptr inbounds double, ptr %1, i64 %indvars.iv104
  %4 = load double, ptr %arrayidx.us.us, align 8
  %cmp2.us.us = fcmp olt double %4, %base
  br i1 %cmp2.us.us, label %if.then, label %for.cond.us.us

for.cond.us.preheader:                            ; preds = %entry.split.us
  %5 = zext i32 %0 to i64
  br label %for.cond.us

for.cond.us:                                      ; preds = %for.cond.us.preheader, %for.body.us
  %indvars.iv96 = phi i64 [ %5, %for.cond.us.preheader ], [ %7, %for.body.us ]
  %6 = trunc i64 %indvars.iv96 to i32
  %cmp.us = icmp sgt i32 %6, 0
  br i1 %cmp.us, label %for.body.us, label %return

for.body.us:                                      ; preds = %for.cond.us
  %7 = add nsw i64 %indvars.iv96, -1
  %arrayidx.us = getelementptr inbounds double, ptr %1, i64 %7
  %8 = load double, ptr %arrayidx.us, align 8
  %or.cond62 = fcmp ugt double %8, %base
  br i1 %or.cond62, label %for.cond.us, label %if.then, !llvm.loop !9

entry.split.split.us:                             ; preds = %entry
  br i1 %tobool.not.not, label %entry.split.split.us.split.us, label %for.cond.us6.preheader

for.cond.us6.preheader:                           ; preds = %entry.split.split.us
  %9 = zext i32 %0 to i64
  br label %for.cond.us6

entry.split.split.us.split.us:                    ; preds = %entry.split.split.us
  %cmp.us9.us41 = icmp sgt i32 %0, 0
  br i1 %cmp.us9.us41, label %for.body.us10.us.preheader, label %return

for.body.us10.us.preheader:                       ; preds = %entry.split.split.us.split.us
  %10 = zext nneg i32 %0 to i64
  br label %for.body.us10.us

for.cond.us6.us:                                  ; preds = %for.body.us10.us
  %cmp.us9.us = icmp ugt i64 %indvars.iv93, 1
  br i1 %cmp.us9.us, label %for.body.us10.us, label %return

for.body.us10.us:                                 ; preds = %for.body.us10.us.preheader, %for.cond.us6.us
  %indvars.iv93 = phi i64 [ %10, %for.body.us10.us.preheader ], [ %indvars.iv.next94, %for.cond.us6.us ]
  %indvars.iv.next94 = add nsw i64 %indvars.iv93, -1
  %arrayidx.us12.us = getelementptr inbounds double, ptr %1, i64 %indvars.iv.next94
  %11 = load double, ptr %arrayidx.us12.us, align 8
  %sub.i.us13.us = fsub double %11, %conv.i
  %sub6.i.us14.us = fsub double %sub.i.us13.us, %conv5.i
  %cmp2.us19.us = fcmp olt double %sub6.i.us14.us, %base
  br i1 %cmp2.us19.us, label %if.then, label %for.cond.us6.us

for.cond.us6:                                     ; preds = %for.cond.us6.preheader, %for.body.us10
  %indvars.iv89 = phi i64 [ %9, %for.cond.us6.preheader ], [ %13, %for.body.us10 ]
  %12 = trunc i64 %indvars.iv89 to i32
  %cmp.us9 = icmp sgt i32 %12, 0
  br i1 %cmp.us9, label %for.body.us10, label %return

for.body.us10:                                    ; preds = %for.cond.us6
  %13 = add nsw i64 %indvars.iv89, -1
  %arrayidx.us12 = getelementptr inbounds double, ptr %1, i64 %13
  %14 = load double, ptr %arrayidx.us12, align 8
  %sub.i.us13 = fsub double %14, %conv.i
  %sub6.i.us14 = fsub double %sub.i.us13, %conv5.i
  %or.cond63 = fcmp ugt double %sub6.i.us14, %base
  br i1 %or.cond63, label %for.cond.us6, label %if.then, !llvm.loop !9

entry.split.split:                                ; preds = %entry
  br i1 %tobool.not.not, label %entry.split.split.split.us, label %for.cond.preheader

for.cond.preheader:                               ; preds = %entry.split.split
  %15 = zext i32 %0 to i64
  br label %for.cond

entry.split.split.split.us:                       ; preds = %entry.split.split
  %cmp.us2537 = icmp sgt i32 %0, 0
  br i1 %cmp.us2537, label %for.body.us26.preheader, label %return

for.body.us26.preheader:                          ; preds = %entry.split.split.split.us
  %16 = zext nneg i32 %0 to i64
  br label %for.body.us26

for.cond.us22:                                    ; preds = %for.body.us26
  %cmp.us25 = icmp ugt i64 %indvars.iv86, 1
  br i1 %cmp.us25, label %for.body.us26, label %return

for.body.us26:                                    ; preds = %for.body.us26.preheader, %for.cond.us22
  %indvars.iv86 = phi i64 [ %16, %for.body.us26.preheader ], [ %indvars.iv.next87, %for.cond.us22 ]
  %indvars.iv.next87 = add nsw i64 %indvars.iv86, -1
  %arrayidx.us28 = getelementptr inbounds double, ptr %1, i64 %indvars.iv.next87
  %17 = load double, ptr %arrayidx.us28, align 8
  %sub.i.us29 = fsub double %17, %conv.i
  %cmp2.us30 = fcmp olt double %sub.i.us29, %base
  br i1 %cmp2.us30, label %if.then, label %for.cond.us22

for.cond:                                         ; preds = %for.cond.preheader, %for.body
  %indvars.iv = phi i64 [ %15, %for.cond.preheader ], [ %19, %for.body ]
  %18 = trunc i64 %indvars.iv to i32
  %cmp = icmp sgt i32 %18, 0
  br i1 %cmp, label %for.body, label %return

for.body:                                         ; preds = %for.cond
  %19 = add nsw i64 %indvars.iv, -1
  %arrayidx = getelementptr inbounds double, ptr %1, i64 %19
  %20 = load double, ptr %arrayidx, align 8
  %sub.i = fsub double %20, %conv.i
  %or.cond64 = fcmp ugt double %sub.i, %base
  br i1 %or.cond64, label %for.cond, label %if.then, !llvm.loop !9

if.then:                                          ; preds = %for.body.us10, %for.body.us10.us, %for.body.us, %for.body.us.us, %for.body, %for.body.us26
  %.us-phi = phi double [ %sub.i.us29, %for.body.us26 ], [ %sub.i, %for.body ], [ %4, %for.body.us.us ], [ %8, %for.body.us ], [ %sub6.i.us14.us, %for.body.us10.us ], [ %sub6.i.us14, %for.body.us10 ]
  store double %.us-phi, ptr %result, align 8
  br label %return

return:                                           ; preds = %for.cond.us6, %for.cond.us6.us, %for.cond.us, %for.cond.us.us, %for.cond, %for.cond.us22, %entry.split.us.split.us, %entry.split.split.split.us, %entry.split.split.us.split.us, %if.then
  %retval.0 = phi i8 [ 1, %if.then ], [ 0, %entry.split.split.us.split.us ], [ 0, %entry.split.split.split.us ], [ 0, %entry.split.us.split.us ], [ 0, %for.cond.us22 ], [ 0, %for.cond ], [ 0, %for.cond.us.us ], [ 0, %for.cond.us ], [ 0, %for.cond.us6.us ], [ 0, %for.cond.us6 ]
  ret i8 %retval.0
}